; Function Attrs: mustprogress uwtable
define hidden noundef nonnull align 8 dereferenceable(72) ptr @_ZNK3ue213ReportManager9getReportEj(ptr noundef nonnull readonly align 8 captures(none) dereferenceable(505) %0, i32 noundef %1) local_unnamed_addr #1 align 2 {
  %3 = getelementptr inbounds nuw i8, ptr %0, i64 200
  %4 = zext i32 %1 to i64
  %5 = getelementptr inbounds nuw i8, ptr %0, i64 208
  %6 = load ptr, ptr %5, align 8
  %7 = load ptr, ptr %3, align 8
  %8 = ptrtoint ptr %6 to i64
  %9 = ptrtoint ptr %7 to i64
  %10 = sub i64 %8, %9
  %11 = sdiv exact i64 %10, 72
  %.not.i.i = icmp ugt i64 %11, %4
  br i1 %.not.i.i, label %_ZNKSt6vectorIN3ue26ReportESaIS1_EE2atEm.exit, label %12

12:                                               ; preds = %2
  tail call void (ptr, ...) @_ZSt24__throw_out_of_range_fmtPKcz(ptr noundef nonnull @.str.13, i64 noundef %4, i64 noundef %11) #22
  unreachable

_ZNKSt6vectorIN3ue26ReportESaIS1_EE2atEm.exit:    ; preds = %2
  %13 = getelementptr inbounds nuw %"struct.ue2::Report", ptr %7, i64 %4
  ret ptr %13
}